target datalayout = "e-m:e-p270:32:32-p271:32:32-p272:64:64-i64:64-i128:128-f80:128-n8:16:32:64-S128"
target triple = "x86_64-unknown-linux-gnu"

%struct.sdshdr8 = type { i8, i8, i8, [0 x i8] }
%struct.sdshdr16 = type <{ i16, i16, i8, [0 x i8] }>
%struct.sdshdr32 = type <{ i32, i32, i8, [0 x i8] }>
%struct.sdshdr64 = type <{ i64, i64, i8, [0 x i8] }>

; Function Attrs: nounwind uwtable
define internal void @sdssetlen(ptr noundef %s, i64 noundef %newlen) #0 {
entry:
  %s.addr = alloca ptr, align 8
  %newlen.addr = alloca i64, align 8
  %flags = alloca i8, align 1
  %fp = alloca ptr, align 8
  store ptr %s, ptr %s.addr, align 8
  store i64 %newlen, ptr %newlen.addr, align 8
  %0 = load ptr, ptr %s.addr, align 8
  %arrayidx = getelementptr inbounds i8, ptr %0, i64 -1
  %1 = load i8, ptr %arrayidx, align 1
  store i8 %1, ptr %flags, align 1
  %2 = load i8, ptr %flags, align 1
  %conv = zext i8 %2 to i32
  %and = and i32 %conv, 7
  switch i32 %and, label %sw.epilog [
    i32 0, label %sw.bb
    i32 1, label %sw.bb2
    i32 2, label %sw.bb5
    i32 3, label %sw.bb9
    i32 4, label %sw.bb13
  ]

sw.bb:                                            ; preds = %entry
  %3 = load ptr, ptr %s.addr, align 8
  %add.ptr = getelementptr inbounds i8, ptr %3, i64 -1
  store ptr %add.ptr, ptr %fp, align 8
  %4 = load i64, ptr %newlen.addr, align 8
  %shl = shl i64 %4, 3
  %or = or i64 0, %shl
  %conv1 = trunc i64 %or to i8
  %5 = load ptr, ptr %fp, align 8
  store i8 %conv1, ptr %5, align 1
  br label %sw.epilog

sw.bb2:                                           ; preds = %entry
  %6 = load i64, ptr %newlen.addr, align 8
  %conv3 = trunc i64 %6 to i8
  %7 = load ptr, ptr %s.addr, align 8
  %add.ptr4 = getelementptr inbounds i8, ptr %7, i64 -3
  %len = getelementptr inbounds %struct.sdshdr8, ptr %add.ptr4, i32 0, i32 0
  store i8 %conv3, ptr %len, align 1
  br label %sw.epilog

sw.bb5:                                           ; preds = %entry
  %8 = load i64, ptr %newlen.addr, align 8
  %conv6 = trunc i64 %8 to i16
  %9 = load ptr, ptr %s.addr, align 8
  %add.ptr7 = getelementptr inbounds i8, ptr %9, i64 -5
  %len8 = getelementptr inbounds %struct.sdshdr16, ptr %add.ptr7, i32 0, i32 0
  store i16 %conv6, ptr %len8, align 1
  br label %sw.epilog

sw.bb9:                                           ; preds = %entry
  %10 = load i64, ptr %newlen.addr, align 8
  %conv10 = trunc i64 %10 to i32
  %11 = load ptr, ptr %s.addr, align 8
  %add.ptr11 = getelementptr inbounds i8, ptr %11, i64 -9
  %len12 = getelementptr inbounds %struct.sdshdr32, ptr %add.ptr11, i32 0, i32 0
  store i32 %conv10, ptr %len12, align 1
  br label %sw.epilog

sw.bb13:                                          ; preds = %entry
  %12 = load i64, ptr %newlen.addr, align 8
  %13 = load ptr, ptr %s.addr, align 8
  %add.ptr14 = getelementptr inbounds i8, ptr %13, i64 -17
  %len15 = getelementptr inbounds %struct.sdshdr64, ptr %add.ptr14, i32 0, i32 0
  store i64 %12, ptr %len15, align 1
  br label %sw.epilog

sw.epilog:                                        ; preds = %sw.bb13, %sw.bb9, %sw.bb5, %sw.bb2, %sw.bb, %entry
  ret void
}

; Function Attrs: nounwind uwtable
define dso_local void @sdsupdatelen(ptr noundef %s) #0 {
entry:
  %s.addr = alloca ptr, align 8
  %reallen = alloca i64, align 8
  store ptr %s, ptr %s.addr, align 8
  %0 = load ptr, ptr %s.addr, align 8
  %call = call i64 @strlen(ptr noundef %0) #12
  store i64 %call, ptr %reallen, align 8
  %1 = load ptr, ptr %s.addr, align 8
  %2 = load i64, ptr %reallen, align 8
  call void @sdssetlen(ptr noundef %1, i64 noundef %2)
  ret void
}