; Function Attrs: mustprogress nofree nounwind willreturn memory(argmem: readwrite) uwtable
define dso_local void @sdsupdatelen(ptr nocapture noundef %s) local_unnamed_addr #6 {
entry:
  %call = tail call i64 @strlen(ptr noundef nonnull dereferenceable(1) %s) #27
  %arrayidx.i = getelementptr inbounds i8, ptr %s, i64 -1
  %0 = load i8, ptr %arrayidx.i, align 1
  %1 = and i8 %0, 7
  switch i8 %1, label %sdssetlen.exit [
    i8 0, label %sw.bb.i
    i8 1, label %sw.bb2.i
    i8 2, label %sw.bb5.i
    i8 3, label %sw.bb9.i
    i8 4, label %sw.bb13.i
  ]

sw.bb.i:                                          ; preds = %entry
  %newlen.tr.i = trunc i64 %call to i8
  %conv1.i = shl i8 %newlen.tr.i, 3
  store i8 %conv1.i, ptr %arrayidx.i, align 1
  br label %sdssetlen.exit

sw.bb2.i:                                         ; preds = %entry
  %conv3.i = trunc i64 %call to i8
  %add.ptr4.i = getelementptr inbounds i8, ptr %s, i64 -3
  store i8 %conv3.i, ptr %add.ptr4.i, align 1
  br label %sdssetlen.exit

sw.bb5.i:                                         ; preds = %entry
  %conv6.i = trunc i64 %call to i16
  %add.ptr7.i = getelementptr inbounds i8, ptr %s, i64 -5
  store i16 %conv6.i, ptr %add.ptr7.i, align 1
  br label %sdssetlen.exit

sw.bb9.i:                                         ; preds = %entry
  %conv10.i = trunc i64 %call to i32
  %add.ptr11.i = getelementptr inbounds i8, ptr %s, i64 -9
  store i32 %conv10.i, ptr %add.ptr11.i, align 1
  br label %sdssetlen.exit

sw.bb13.i:                                        ; preds = %entry
  %add.ptr14.i = getelementptr inbounds i8, ptr %s, i64 -17
  store i64 %call, ptr %add.ptr14.i, align 1
  br label %sdssetlen.exit

sdssetlen.exit:                                   ; preds = %entry, %sw.bb.i, %sw.bb2.i, %sw.bb5.i, %sw.bb9.i, %sw.bb13.i
  ret void
}